target datalayout = "e-m:e-p270:32:32-p271:32:32-p272:64:64-i64:64-i128:128-f80:128-n8:16:32:64-S128"
target triple = "x86_64-pc-linux-gnu"

%"class.arrow::Status" = type { ptr }
%"struct.arrow::Status::State" = type { i8, i8, %"class.std::__cxx11::basic_string", %"class.std::shared_ptr" }
%"class.std::__cxx11::basic_string" = type { %"struct.std::__cxx11::basic_string<char>::_Alloc_hider", i64, %union.anon }
%"struct.std::__cxx11::basic_string<char>::_Alloc_hider" = type { ptr }
%union.anon = type { i64, [8 x i8] }
%"class.std::shared_ptr" = type { %"class.std::__shared_ptr" }
%"class.std::__shared_ptr" = type { ptr, %"class.std::__shared_count" }
%"class.std::__shared_count" = type { ptr }

@.str = private unnamed_addr constant [61 x i8] c"RequiredValueAlignmentForBuffer called with invalid type id \00", align 1

; Function Attrs: mustprogress nounwind uwtable
define linkonce_odr void @_ZN5arrow4util18EqualityComparableINS_6StatusEED2Ev(ptr noundef nonnull align 1 dereferenceable(1) %0) unnamed_addr #3 comdat align 2 {
  %2 = alloca ptr, align 8
  store ptr %0, ptr %2, align 8, !tbaa !41
  ret void
}

; Function Attrs: mustprogress nounwind uwtable
define linkonce_odr void @_ZN5arrow4util19ToStringOstreamableINS_6StatusEED2Ev(ptr noundef nonnull align 1 dereferenceable(1) %0) unnamed_addr #3 comdat align 2 {
  %2 = alloca ptr, align 8
  store ptr %0, ptr %2, align 8, !tbaa !39
  ret void
}

; Function Attrs: mustprogress nounwind uwtable
define linkonce_odr void @_ZN5arrow6StatusD2Ev(ptr noundef nonnull align 8 dereferenceable(8) %0) unnamed_addr #3 comdat align 2 {
  %2 = alloca ptr, align 8
  store ptr %0, ptr %2, align 8, !tbaa !20
  %3 = load ptr, ptr %2, align 8
  %4 = getelementptr inbounds nuw %"class.arrow::Status", ptr %3, i32 0, i32 0
  %5 = load ptr, ptr %4, align 8, !tbaa !22
  %6 = icmp ne ptr %5, null
  %7 = xor i1 %6, true
  %8 = xor i1 %7, true
  %9 = zext i1 %8 to i64
  %10 = call i64 @llvm.expect.i64(i64 %9, i64 0)
  %11 = icmp ne i64 %10, 0
  br i1 %11, label %12, label %20

12:                                               ; preds = %1
  %13 = getelementptr inbounds nuw %"class.arrow::Status", ptr %3, i32 0, i32 0
  %14 = load ptr, ptr %13, align 8, !tbaa !22
  %15 = getelementptr inbounds nuw %"struct.arrow::Status::State", ptr %14, i32 0, i32 1
  %16 = load i8, ptr %15, align 1, !tbaa !25, !range !37, !noundef !38
  %17 = trunc i8 %16 to i1
  br i1 %17, label %19, label %18

18:                                               ; preds = %12
  call void @_ZN5arrow6Status11DeleteStateEv(ptr noundef nonnull align 8 dereferenceable(8) %3) #13
  br label %19

19:                                               ; preds = %18, %12
  br label %20

20:                                               ; preds = %19, %1
  call void @_ZN5arrow4util19ToStringOstreamableINS_6StatusEED2Ev(ptr noundef nonnull align 1 dereferenceable(1) %3) #13
  call void @_ZN5arrow4util18EqualityComparableINS_6StatusEED2Ev(ptr noundef nonnull align 1 dereferenceable(1) %3) #13
  ret void
}

; Function Attrs: mustprogress uwtable
define linkonce_odr void @_ZN5arrow6Status7InvalidIJRA61_KcRNS_4Type4typeEEEES0_DpOT_(ptr dead_on_unwind noalias writable sret(%"class.arrow::Status") align 8 %0, ptr noundef nonnull align 1 dereferenceable(61) %1, ptr noundef nonnull align 4 dereferenceable(4) %2) #0 comdat align 2 {
  %4 = alloca ptr, align 8
  %5 = alloca ptr, align 8
  %6 = alloca ptr, align 8
  store ptr %0, ptr %4, align 8
  store ptr %1, ptr %5, align 8, !tbaa !16
  store ptr %2, ptr %6, align 8, !tbaa !19
  %7 = load ptr, ptr %5, align 8, !tbaa !16
  %8 = load ptr, ptr %6, align 8, !tbaa !19
  call void @_ZN5arrow6Status8FromArgsIJRA61_KcRNS_4Type4typeEEEES0_NS_10StatusCodeEDpOT_(ptr dead_on_unwind writable sret(%"class.arrow::Status") align 8 %0, i8 noundef signext 4, ptr noundef nonnull align 1 dereferenceable(61) %7, ptr noundef nonnull align 4 dereferenceable(4) %8)
  ret void
}

; Function Attrs: mustprogress uwtable
define noundef i32 @_ZN5arrow31RequiredValueAlignmentForBufferENS_4Type4typeEi(i32 noundef %0, i32 noundef %1) #0 personality ptr @__gxx_personality_v0 {
  %3 = alloca i32, align 4
  %4 = alloca i32, align 4
  %5 = alloca i32, align 4
  %6 = alloca %"class.arrow::Status", align 8
  %7 = alloca ptr, align 8
  %8 = alloca i32, align 4
  store i32 %0, ptr %4, align 4, !tbaa !3
  store i32 %1, ptr %5, align 4, !tbaa !7
  %9 = load i32, ptr %5, align 4, !tbaa !7
  %10 = icmp eq i32 %9, 2
  br i1 %10, label %11, label %15

11:                                               ; preds = %2
  %12 = load i32, ptr %4, align 4, !tbaa !3
  %13 = icmp eq i32 %12, 28
  br i1 %13, label %14, label %15

14:                                               ; preds = %11
  store i32 4, ptr %3, align 4
  br label %50

15:                                               ; preds = %11, %2
  %16 = load i32, ptr %5, align 4, !tbaa !7
  %17 = icmp ne i32 %16, 1
  br i1 %17, label %18, label %19

18:                                               ; preds = %15
  store i32 1, ptr %3, align 4
  br label %50

19:                                               ; preds = %15
  br label %20

20:                                               ; preds = %21, %19
  br i1 false, label %21, label %22

21:                                               ; preds = %20
  br label %20, !llvm.loop !9

22:                                               ; preds = %20
  br label %23

23:                                               ; preds = %24, %22
  br i1 false, label %24, label %25

24:                                               ; preds = %23
  br label %23, !llvm.loop !11

25:                                               ; preds = %23
  br label %26

26:                                               ; preds = %27, %25
  br i1 false, label %27, label %28

27:                                               ; preds = %26
  br label %26, !llvm.loop !12

28:                                               ; preds = %26
  br label %29

29:                                               ; preds = %30, %28
  br i1 false, label %30, label %31

30:                                               ; preds = %29
  br label %29, !llvm.loop !13

31:                                               ; preds = %29
  br label %32

32:                                               ; preds = %33, %31
  br i1 false, label %33, label %34

33:                                               ; preds = %32
  br label %32, !llvm.loop !14

34:                                               ; preds = %32
  br label %35

35:                                               ; preds = %36, %34
  br i1 false, label %36, label %37

36:                                               ; preds = %35
  br label %35, !llvm.loop !15

37:                                               ; preds = %35
  %38 = load i32, ptr %4, align 4, !tbaa !3
  switch i32 %38, label %44 [
    i32 0, label %39
    i32 32, label %39
    i32 15, label %39
    i32 1, label %39
    i32 3, label %39
    i32 2, label %39
    i32 28, label %39
    i32 27, label %39
    i32 38, label %39
    i32 26, label %39
    i32 5, label %40
    i32 4, label %40
    i32 10, label %40
    i32 7, label %41
    i32 6, label %41
    i32 11, label %41
    i32 13, label %41
    i32 14, label %41
    i32 16, label %41
    i32 19, label %41
    i32 25, label %41
    i32 41, label %41
    i32 30, label %41
    i32 21, label %41
    i32 22, label %41
    i32 43, label %41
    i32 9, label %42
    i32 8, label %42
    i32 12, label %42
    i32 44, label %42
    i32 23, label %42
    i32 24, label %42
    i32 35, label %42
    i32 34, label %42
    i32 36, label %42
    i32 42, label %42
    i32 17, label %42
    i32 20, label %42
    i32 18, label %42
    i32 33, label %42
    i32 37, label %42
    i32 39, label %42
    i32 40, label %42
    i32 29, label %43
    i32 31, label %43
    i32 45, label %43
  ]

39:                                               ; preds = %37, %37, %37, %37, %37, %37, %37, %37, %37, %37
  store i32 1, ptr %3, align 4
  br label %50

40:                                               ; preds = %37, %37, %37
  store i32 2, ptr %3, align 4
  br label %50

41:                                               ; preds = %37, %37, %37, %37, %37, %37, %37, %37, %37, %37, %37, %37, %37
  store i32 4, ptr %3, align 4
  br label %50

42:                                               ; preds = %37, %37, %37, %37, %37, %37, %37, %37, %37, %37, %37, %37, %37, %37, %37, %37, %37
  store i32 8, ptr %3, align 4
  br label %50

43:                                               ; preds = %37, %37, %37
  br label %44

44:                                               ; preds = %37, %43
  call void @llvm.lifetime.start.p0(i64 8, ptr %6) #13
  call void @_ZN5arrow6Status7InvalidIJRA61_KcRNS_4Type4typeEEEES0_DpOT_(ptr dead_on_unwind writable sret(%"class.arrow::Status") align 8 %6, ptr noundef nonnull align 1 dereferenceable(61) @.str, ptr noundef nonnull align 4 dereferenceable(4) %4)
  invoke void @_ZNK5arrow6Status4WarnEv(ptr noundef nonnull align 8 dereferenceable(8) %6)
          to label %45 unwind label %46

45:                                               ; preds = %44
  call void @_ZN5arrow6StatusD2Ev(ptr noundef nonnull align 8 dereferenceable(8) %6) #13
  call void @llvm.lifetime.end.p0(i64 8, ptr %6) #13
  store i32 1, ptr %3, align 4
  br label %50

46:                                               ; preds = %44
  %47 = landingpad { ptr, i32 }
          cleanup
  %48 = extractvalue { ptr, i32 } %47, 0
  store ptr %48, ptr %7, align 8
  %49 = extractvalue { ptr, i32 } %47, 1
  store i32 %49, ptr %8, align 4
  call void @_ZN5arrow6StatusD2Ev(ptr noundef nonnull align 8 dereferenceable(8) %6) #13
  call void @llvm.lifetime.end.p0(i64 8, ptr %6) #13
  br label %52

50:                                               ; preds = %45, %42, %41, %40, %39, %18, %14
  %51 = load i32, ptr %3, align 4
  ret i32 %51

52:                                               ; preds = %46
  %53 = load ptr, ptr %7, align 8
  %54 = load i32, ptr %8, align 4
  %55 = insertvalue { ptr, i32 } poison, ptr %53, 0
  %56 = insertvalue { ptr, i32 } %55, i32 %54, 1
  resume { ptr, i32 } %56
}