; Function Attrs: mustprogress uwtable
define noundef range(i32 1, 9) i32 @_ZN5arrow31RequiredValueAlignmentForBufferENS_4Type4typeEi(i32 noundef %0, i32 noundef %1) local_unnamed_addr #0 personality ptr @__gxx_personality_v0 {
  %3 = alloca i32, align 4
  %4 = alloca %"class.arrow::Status", align 8
  store i32 %0, ptr %3, align 4, !tbaa !3
  %5 = icmp eq i32 %1, 2
  %6 = icmp eq i32 %0, 28
  %or.cond = and i1 %6, %5
  br i1 %or.cond, label %27, label %7

7:                                                ; preds = %2
  %.not = icmp eq i32 %1, 1
  br i1 %.not, label %8, label %27

8:                                                ; preds = %7
  %9 = icmp ult i32 %0, 45
  br i1 %9, label %switch.hole_check, label %10

10:                                               ; preds = %switch.hole_check, %8
  call void @llvm.lifetime.start.p0(i64 8, ptr nonnull %4) #9
  call void @_ZN5arrow6Status8FromArgsIJRA61_KcRNS_4Type4typeEEEES0_NS_10StatusCodeEDpOT_(ptr dead_on_unwind nonnull writable sret(%"class.arrow::Status") align 8 %4, i8 noundef signext 4, ptr noundef nonnull align 1 dereferenceable(61) @.str, ptr noundef nonnull align 4 dereferenceable(4) %3)
  invoke void @_ZNK5arrow6Status4WarnEv(ptr noundef nonnull align 8 dereferenceable(8) %4)
          to label %11 unwind label %18

11:                                               ; preds = %10
  %12 = load ptr, ptr %4, align 8, !tbaa !7
  %.not.i = icmp eq ptr %12, null
  br i1 %.not.i, label %_ZN5arrow6StatusD2Ev.exit, label %13, !prof !11

13:                                               ; preds = %11
  %14 = getelementptr inbounds nuw i8, ptr %12, i64 1
  %15 = load i8, ptr %14, align 1, !tbaa !12, !range !25, !noundef !26
  %16 = trunc nuw i8 %15 to i1
  br i1 %16, label %_ZN5arrow6StatusD2Ev.exit, label %17

17:                                               ; preds = %13
  call void @_ZN5arrow6Status11DeleteStateEv(ptr noundef nonnull align 8 dereferenceable(8) %4) #9
  br label %_ZN5arrow6StatusD2Ev.exit

_ZN5arrow6StatusD2Ev.exit:                        ; preds = %11, %13, %17
  call void @llvm.lifetime.end.p0(i64 8, ptr nonnull %4) #9
  br label %27

18:                                               ; preds = %10
  %19 = landingpad { ptr, i32 }
          cleanup
  %20 = load ptr, ptr %4, align 8, !tbaa !7
  %.not.i5 = icmp eq ptr %20, null
  br i1 %.not.i5, label %_ZN5arrow6StatusD2Ev.exit6, label %21, !prof !11

21:                                               ; preds = %18
  %22 = getelementptr inbounds nuw i8, ptr %20, i64 1
  %23 = load i8, ptr %22, align 1, !tbaa !12, !range !25, !noundef !26
  %24 = trunc nuw i8 %23 to i1
  br i1 %24, label %_ZN5arrow6StatusD2Ev.exit6, label %25

25:                                               ; preds = %21
  call void @_ZN5arrow6Status11DeleteStateEv(ptr noundef nonnull align 8 dereferenceable(8) %4) #9
  br label %_ZN5arrow6StatusD2Ev.exit6

_ZN5arrow6StatusD2Ev.exit6:                       ; preds = %18, %21, %25
  call void @llvm.lifetime.end.p0(i64 8, ptr nonnull %4) #9
  resume { ptr, i32 } %19

switch.hole_check:                                ; preds = %8
  %switch.maskindex = zext nneg i32 %0 to i64
  %switch.shifted = lshr i64 35181687734271, %switch.maskindex
  %switch.lobit = trunc i64 %switch.shifted to i1
  br i1 %switch.lobit, label %switch.lookup, label %10

switch.lookup:                                    ; preds = %switch.hole_check
  %26 = zext nneg i32 %0 to i64
  %switch.gep = getelementptr inbounds nuw [45 x i32], ptr @switch.table._ZN5arrow31RequiredValueAlignmentForBufferENS_4Type4typeEi, i64 0, i64 %26
  %switch.load = load i32, ptr %switch.gep, align 4
  br label %27

27:                                               ; preds = %switch.lookup, %7, %2, %_ZN5arrow6StatusD2Ev.exit
  %.0 = phi i32 [ 1, %_ZN5arrow6StatusD2Ev.exit ], [ 4, %2 ], [ 1, %7 ], [ %switch.load, %switch.lookup ]
  ret i32 %.0
}